target datalayout = "e-m:e-p270:32:32-p271:32:32-p272:64:64-i64:64-i128:128-f80:128-n8:16:32:64-S128"
target triple = "x86_64-pc-linux-gnu"

@UseAVX = external global i32, align 4

; Function Attrs: mustprogress nounwind uwtable
define linkonce_odr hidden noundef zeroext i1 @_ZN7Matcher31supports_vector_variable_shiftsEv() #1 comdat align 2 {
  %1 = load i32, ptr @UseAVX, align 4
  %2 = icmp sge i32 %1, 2
  ret i1 %2
}

; Function Attrs: mustprogress nounwind uwtable
define hidden noundef zeroext i1 @_ZN10VectorNode26is_vector_rotate_supportedEij9BasicType(i32 noundef %0, i32 noundef %1, i8 noundef zeroext %2) #1 align 2 {
  %4 = alloca i1, align 1
  %5 = alloca i32, align 4
  %6 = alloca i32, align 4
  %7 = alloca i8, align 1
  store i32 %0, ptr %5, align 4
  store i32 %1, ptr %6, align 4
  store i8 %2, ptr %7, align 1
  %8 = load i32, ptr %5, align 4
  %9 = load i32, ptr %6, align 4
  %10 = load i8, ptr %7, align 1
  %11 = call noundef zeroext i1 @_ZN7Matcher27match_rule_supported_vectorEii9BasicType(i32 noundef %8, i32 noundef %9, i8 noundef zeroext %10)
  br i1 %11, label %12, label %13

12:                                               ; preds = %3
  store i1 true, ptr %4, align 1
  br label %48

13:                                               ; preds = %3
  %14 = call noundef zeroext i1 @_ZN7Matcher31supports_vector_variable_shiftsEv()
  br i1 %14, label %16, label %15

15:                                               ; preds = %13
  store i1 false, ptr %4, align 1
  br label %48

16:                                               ; preds = %13
  %17 = load i8, ptr %7, align 1
  %18 = zext i8 %17 to i32
  switch i32 %18, label %47 [
    i32 10, label %19
    i32 11, label %33
  ]

19:                                               ; preds = %16
  %20 = load i32, ptr %6, align 4
  %21 = load i8, ptr %7, align 1
  %22 = call noundef zeroext i1 @_ZN7Matcher27match_rule_supported_vectorEii9BasicType(i32 noundef 415, i32 noundef %20, i8 noundef zeroext %21)
  br i1 %22, label %23, label %31

23:                                               ; preds = %19
  %24 = load i32, ptr %6, align 4
  %25 = load i8, ptr %7, align 1
  %26 = call noundef zeroext i1 @_ZN7Matcher27match_rule_supported_vectorEii9BasicType(i32 noundef 403, i32 noundef %24, i8 noundef zeroext %25)
  br i1 %26, label %27, label %31

27:                                               ; preds = %23
  %28 = load i32, ptr %6, align 4
  %29 = load i8, ptr %7, align 1
  %30 = call noundef zeroext i1 @_ZN7Matcher27match_rule_supported_vectorEii9BasicType(i32 noundef 411, i32 noundef %28, i8 noundef zeroext %29)
  br label %31

31:                                               ; preds = %27, %23, %19
  %32 = phi i1 [ false, %23 ], [ false, %19 ], [ %30, %27 ]
  store i1 %32, ptr %4, align 1
  br label %48

33:                                               ; preds = %16
  %34 = load i32, ptr %6, align 4
  %35 = load i8, ptr %7, align 1
  %36 = call noundef zeroext i1 @_ZN7Matcher27match_rule_supported_vectorEii9BasicType(i32 noundef 415, i32 noundef %34, i8 noundef zeroext %35)
  br i1 %36, label %37, label %45

37:                                               ; preds = %33
  %38 = load i32, ptr %6, align 4
  %39 = load i8, ptr %7, align 1
  %40 = call noundef zeroext i1 @_ZN7Matcher27match_rule_supported_vectorEii9BasicType(i32 noundef 404, i32 noundef %38, i8 noundef zeroext %39)
  br i1 %40, label %41, label %45

41:                                               ; preds = %37
  %42 = load i32, ptr %6, align 4
  %43 = load i8, ptr %7, align 1
  %44 = call noundef zeroext i1 @_ZN7Matcher27match_rule_supported_vectorEii9BasicType(i32 noundef 412, i32 noundef %42, i8 noundef zeroext %43)
  br label %45

45:                                               ; preds = %41, %37, %33
  %46 = phi i1 [ false, %37 ], [ false, %33 ], [ %44, %41 ]
  store i1 %46, ptr %4, align 1
  br label %48

47:                                               ; preds = %16
  store i1 false, ptr %4, align 1
  br label %48

48:                                               ; preds = %47, %45, %31, %15, %12
  %49 = load i1, ptr %4, align 1
  ret i1 %49
}