; Function Attrs: mustprogress nounwind uwtable
define hidden noundef zeroext i1 @_ZN10VectorNode26is_vector_rotate_supportedEij9BasicType(i32 noundef %0, i32 noundef %1, i8 noundef zeroext %2) local_unnamed_addr #1 align 2 {
  %4 = tail call noundef zeroext i1 @_ZN7Matcher27match_rule_supported_vectorEii9BasicType(i32 noundef %0, i32 noundef %1, i8 noundef zeroext %2) #8
  br i1 %4, label %21, label %5

5:                                                ; preds = %3
  %6 = load i32, ptr @UseAVX, align 4
  %7 = icmp sgt i32 %6, 1
  br i1 %7, label %8, label %21

8:                                                ; preds = %5
  switch i8 %2, label %21 [
    i8 10, label %9
    i8 11, label %15
  ]

9:                                                ; preds = %8
  %10 = tail call noundef zeroext i1 @_ZN7Matcher27match_rule_supported_vectorEii9BasicType(i32 noundef 415, i32 noundef %1, i8 noundef zeroext 10) #8
  br i1 %10, label %11, label %21

11:                                               ; preds = %9
  %12 = tail call noundef zeroext i1 @_ZN7Matcher27match_rule_supported_vectorEii9BasicType(i32 noundef 403, i32 noundef %1, i8 noundef zeroext 10) #8
  br i1 %12, label %13, label %21

13:                                               ; preds = %11
  %14 = tail call noundef zeroext i1 @_ZN7Matcher27match_rule_supported_vectorEii9BasicType(i32 noundef 411, i32 noundef %1, i8 noundef zeroext 10) #8
  br label %21

15:                                               ; preds = %8
  %16 = tail call noundef zeroext i1 @_ZN7Matcher27match_rule_supported_vectorEii9BasicType(i32 noundef 415, i32 noundef %1, i8 noundef zeroext 11) #8
  br i1 %16, label %17, label %21

17:                                               ; preds = %15
  %18 = tail call noundef zeroext i1 @_ZN7Matcher27match_rule_supported_vectorEii9BasicType(i32 noundef 404, i32 noundef %1, i8 noundef zeroext 11) #8
  br i1 %18, label %19, label %21

19:                                               ; preds = %17
  %20 = tail call noundef zeroext i1 @_ZN7Matcher27match_rule_supported_vectorEii9BasicType(i32 noundef 412, i32 noundef %1, i8 noundef zeroext 11) #8
  br label %21

21:                                               ; preds = %8, %15, %17, %19, %9, %11, %13, %5, %3
  %.0 = phi i1 [ true, %3 ], [ false, %5 ], [ false, %11 ], [ false, %9 ], [ %14, %13 ], [ false, %17 ], [ false, %15 ], [ %20, %19 ], [ false, %8 ]
  ret i1 %.0
}